; Function Attrs: mustprogress nounwind uwtable
define hidden noundef zeroext i1 @_ZN15ZPhysicalMemory16uncommit_segmentEim(ptr noundef nonnull align 8 dereferenceable(16) %0, i32 noundef %1, i64 noundef %2) local_unnamed_addr #1 align 2 {
  %4 = alloca %class.ZPhysicalMemorySegment, align 8
  %5 = getelementptr inbounds i8, ptr %0, i64 8
  %6 = load ptr, ptr %5, align 8
  %7 = sext i32 %1 to i64
  %8 = getelementptr inbounds %class.ZPhysicalMemorySegment, ptr %6, i64 %7
  %9 = getelementptr inbounds i8, ptr %8, i64 8
  %10 = load i64, ptr %9, align 8
  %11 = load i64, ptr %8, align 8
  %12 = sub i64 %10, %11
  %13 = icmp eq i64 %12, %2
  br i1 %13, label %.sink.split, label %14

14:                                               ; preds = %3
  %.not = icmp eq i64 %2, 0
  br i1 %.not, label %25, label %15

15:                                               ; preds = %14
  %16 = add nsw i32 %1, 1
  %17 = add i64 %11, %2
  call void @llvm.lifetime.start.p0(i64 24, ptr nonnull %4)
  store i64 %17, ptr %4, align 8
  %18 = getelementptr inbounds i8, ptr %4, i64 8
  store i64 %10, ptr %18, align 8
  %19 = getelementptr inbounds i8, ptr %4, i64 16
  store i8 1, ptr %19, align 8
  call void @_ZN26GrowableArrayWithAllocatorI22ZPhysicalMemorySegment18GrowableArrayCHeapIS0_L8MEMFLAGS5EEE13insert_beforeEiRKS0_(ptr noundef nonnull align 8 dereferenceable(16) %0, i32 noundef %16, ptr noundef nonnull align 8 dereferenceable(17) %4)
  call void @llvm.lifetime.end.p0(i64 24, ptr nonnull %4)
  %20 = load ptr, ptr %5, align 8
  %21 = getelementptr inbounds %class.ZPhysicalMemorySegment, ptr %20, i64 %7
  %22 = load i64, ptr %21, align 8
  %23 = add i64 %22, %2
  %.sroa.2.0..sroa_idx.i = getelementptr inbounds i8, ptr %21, i64 8
  store i64 %23, ptr %.sroa.2.0..sroa_idx.i, align 8
  br label %.sink.split

.sink.split:                                      ; preds = %3, %15
  %24 = phi ptr [ %20, %15 ], [ %6, %3 ]
  %.sroa.3.0..sroa_idx.i = getelementptr inbounds %class.ZPhysicalMemorySegment, ptr %24, i64 %7, i32 2
  store i8 0, ptr %.sroa.3.0..sroa_idx.i, align 8
  br label %25

25:                                               ; preds = %.sink.split, %14
  ret i1 %13
}